; Function Attrs: nounwind uwtable
define dso_local ptr @data_resolve_dict_path_const(ptr noundef %0, ptr noundef %1) local_unnamed_addr #0 {
  %3 = alloca ptr, align 8
  %4 = alloca ptr, align 8
  call void @llvm.lifetime.start.p0(i64 8, ptr nonnull %3) #16
  store ptr null, ptr %3, align 8
  call void @llvm.lifetime.start.p0(i64 8, ptr nonnull %4) #16
  %.not = icmp eq ptr %0, null
  br i1 %.not, label %34, label %5

5:                                                ; preds = %2
  %6 = tail call ptr @xstrdup(ptr noundef %1) #16
  store ptr %6, ptr %4, align 8
  %7 = call ptr @strtok_r(ptr noundef %6, ptr noundef nonnull @.str.29, ptr noundef nonnull %3) #16
  %.not2641 = icmp eq ptr %7, null
  br i1 %.not2641, label %._crit_edge, label %.lr.ph

.lr.ph:                                           ; preds = %5, %24
  %.043 = phi ptr [ %25, %24 ], [ %7, %5 ]
  %.02142 = phi ptr [ %23, %24 ], [ %0, %5 ]
  call void @xstrtrim(ptr noundef nonnull %.043) #16
  %8 = getelementptr inbounds nuw i8, ptr %.02142, i64 4
  %9 = load i32, ptr %8, align 4
  %.not27 = icmp eq i32 %9, 65283
  br i1 %.not27, label %10, label %data_key_get_const.exit.thread

10:                                               ; preds = %.lr.ph
  %11 = getelementptr inbounds nuw i8, ptr %.02142, i64 8
  %12 = load ptr, ptr %11, align 8
  %13 = getelementptr inbounds nuw i8, ptr %12, i64 8
  %14 = load i64, ptr %13, align 8
  %.not20.i = icmp eq i64 %14, 0
  br i1 %.not20.i, label %data_key_get_const.exit.thread, label %15

15:                                               ; preds = %10
  %16 = getelementptr inbounds nuw i8, ptr %12, i64 16
  %.024.i = load ptr, ptr %16, align 8
  %.not2125.i = icmp eq ptr %.024.i, null
  br i1 %.not2125.i, label %data_key_get_const.exit.thread, label %.lr.ph.i

.lr.ph.i:                                         ; preds = %15, %20
  %.026.i = phi ptr [ %.0.i, %20 ], [ %.024.i, %15 ]
  %17 = getelementptr inbounds nuw i8, ptr %.026.i, i64 24
  %18 = load ptr, ptr %17, align 8
  %19 = call i32 @xstrcmp(ptr noundef nonnull %.043, ptr noundef %18) #16
  %.not22.i = icmp eq i32 %19, 0
  br i1 %.not22.i, label %data_key_get_const.exit, label %20

20:                                               ; preds = %.lr.ph.i
  %21 = getelementptr inbounds nuw i8, ptr %.026.i, i64 8
  %.0.i = load ptr, ptr %21, align 8
  %.not21.i = icmp eq ptr %.0.i, null
  br i1 %.not21.i, label %data_key_get_const.exit.thread, label %.lr.ph.i, !llvm.loop !15

data_key_get_const.exit:                          ; preds = %.lr.ph.i
  %22 = getelementptr inbounds nuw i8, ptr %.026.i, i64 16
  %23 = load ptr, ptr %22, align 8
  %.not28 = icmp eq ptr %23, null
  br i1 %.not28, label %data_key_get_const.exit.thread, label %24

24:                                               ; preds = %data_key_get_const.exit
  %25 = call ptr @strtok_r(ptr noundef null, ptr noundef nonnull @.str.29, ptr noundef nonnull %3) #16
  %.not26 = icmp eq ptr %25, null
  br i1 %.not26, label %._crit_edge, label %.lr.ph, !llvm.loop !33

._crit_edge:                                      ; preds = %24, %5
  %.021.lcssa = phi ptr [ %0, %5 ], [ %23, %24 ]
  call void @slurm_xfree(ptr noundef nonnull %4) #16
  %26 = load i64, ptr getelementptr inbounds nuw (i8, ptr @slurm_conf, i64 320), align 8
  %27 = and i64 %26, 256
  %.not31 = icmp eq i64 %27, 0
  br i1 %.not31, label %34, label %28

28:                                               ; preds = %._crit_edge
  %29 = call i64 @strlen(ptr noundef nonnull dereferenceable(1) %1) #17
  call void (ptr, i64, i64, i64, ptr, ...) @_log_flag_hex(ptr noundef nonnull %1, i64 noundef %29, i64 noundef -1, i64 noundef -1, ptr noundef nonnull @.str.53, ptr noundef nonnull @__func__.data_resolve_dict_path_const, ptr noundef nonnull %0, ptr noundef nonnull %.021.lcssa) #16
  br label %34

data_key_get_const.exit.thread:                   ; preds = %15, %10, %data_key_get_const.exit, %.lr.ph, %20
  call void @slurm_xfree(ptr noundef nonnull %4) #16
  %30 = load i64, ptr getelementptr inbounds nuw (i8, ptr @slurm_conf, i64 320), align 8
  %31 = and i64 %30, 256
  %.not30 = icmp eq i64 %31, 0
  br i1 %.not30, label %34, label %32

32:                                               ; preds = %data_key_get_const.exit.thread
  %33 = call i64 @strlen(ptr noundef nonnull dereferenceable(1) %1) #17
  call void (ptr, i64, i64, i64, ptr, ...) @_log_flag_hex(ptr noundef nonnull %1, i64 noundef %33, i64 noundef -1, i64 noundef -1, ptr noundef nonnull @.str.54, ptr noundef nonnull @__func__.data_resolve_dict_path_const, ptr noundef nonnull %0) #16
  br label %34

34:                                               ; preds = %28, %._crit_edge, %32, %data_key_get_const.exit.thread, %2
  %.022 = phi ptr [ null, %2 ], [ null, %data_key_get_const.exit.thread ], [ null, %32 ], [ %.021.lcssa, %._crit_edge ], [ %.021.lcssa, %28 ]
  call void @llvm.lifetime.end.p0(i64 8, ptr nonnull %4) #16
  call void @llvm.lifetime.end.p0(i64 8, ptr nonnull %3) #16
  ret ptr %.022
}